; Function Attrs: uwtable
define void @_ZTv0_n40_N8QuantLib19CompositeInstrument10deepUpdateEv(ptr noundef %this) unnamed_addr #12 align 2 {
entry:
  %vtable = load ptr, ptr %this, align 8, !tbaa !33
  %0 = getelementptr inbounds i8, ptr %vtable, i64 -40
  %1 = load i64, ptr %0, align 8
  %2 = getelementptr inbounds i8, ptr %this, i64 %1
  %components_.i = getelementptr inbounds nuw i8, ptr %2, i64 104
  %__begin1.sroa.0.04.i = load ptr, ptr %components_.i, align 8, !tbaa !60
  %cmp.i.not5.i = icmp eq ptr %__begin1.sroa.0.04.i, %components_.i
  br i1 %cmp.i.not5.i, label %_ZN8QuantLib19CompositeInstrument10deepUpdateEv.exit, label %for.body.i

for.body.i:                                       ; preds = %entry, %_ZNK5boost10shared_ptrIN8QuantLib10InstrumentEEptEv.exit.i
  %__begin1.sroa.0.06.i = phi ptr [ %__begin1.sroa.0.0.i, %_ZNK5boost10shared_ptrIN8QuantLib10InstrumentEEptEv.exit.i ], [ %__begin1.sroa.0.04.i, %entry ]
  %_M_storage.i.i.i = getelementptr inbounds nuw i8, ptr %__begin1.sroa.0.06.i, i64 16
  %3 = load ptr, ptr %_M_storage.i.i.i, align 8, !tbaa !35
  %cmp.not.i.i = icmp eq ptr %3, null
  br i1 %cmp.not.i.i, label %cond.false.i.i, label %_ZNK5boost10shared_ptrIN8QuantLib10InstrumentEEptEv.exit.i, !prof !57

cond.false.i.i:                                   ; preds = %for.body.i
  tail call void @_ZN5boost16assertion_failedEPKcS1_S1_l(ptr noundef nonnull @.str.5, ptr noundef nonnull @__PRETTY_FUNCTION__._ZNK5boost10shared_ptrIN8QuantLib10InstrumentEEptEv, ptr noundef nonnull @.str.6, i64 noundef 784)
  %.pre.i.i = load ptr, ptr %_M_storage.i.i.i, align 8, !tbaa !35
  br label %_ZNK5boost10shared_ptrIN8QuantLib10InstrumentEEptEv.exit.i

_ZNK5boost10shared_ptrIN8QuantLib10InstrumentEEptEv.exit.i: ; preds = %cond.false.i.i, %for.body.i
  %4 = phi ptr [ %3, %for.body.i ], [ %.pre.i.i, %cond.false.i.i ]
  %vtable.i = load ptr, ptr %4, align 8, !tbaa !33
  %vbase.offset.ptr.i = getelementptr i8, ptr %vtable.i, i64 -32
  %vbase.offset.i = load i64, ptr %vbase.offset.ptr.i, align 8
  %add.ptr.i = getelementptr inbounds i8, ptr %4, i64 %vbase.offset.i
  %vtable7.i = load ptr, ptr %add.ptr.i, align 8, !tbaa !33
  %vfn.i = getelementptr inbounds i8, ptr %vtable7.i, i64 24
  %5 = load ptr, ptr %vfn.i, align 8
  tail call void %5(ptr noundef nonnull align 8 dereferenceable(56) %add.ptr.i)
  %__begin1.sroa.0.0.i = load ptr, ptr %__begin1.sroa.0.06.i, align 8, !tbaa !60
  %cmp.i.not.i = icmp eq ptr %__begin1.sroa.0.0.i, %components_.i
  br i1 %cmp.i.not.i, label %_ZN8QuantLib19CompositeInstrument10deepUpdateEv.exit, label %for.body.i

_ZN8QuantLib19CompositeInstrument10deepUpdateEv.exit: ; preds = %_ZNK5boost10shared_ptrIN8QuantLib10InstrumentEEptEv.exit.i, %entry
  %vtable9.i = load ptr, ptr %2, align 8, !tbaa !33
  %vfn10.i = getelementptr inbounds i8, ptr %vtable9.i, i64 16
  %6 = load ptr, ptr %vfn10.i, align 8
  tail call void %6(ptr noundef nonnull align 8 dereferenceable(12) %2)
  ret void
}